target datalayout = "e-m:e-p270:32:32-p271:32:32-p272:64:64-i64:64-i128:128-f80:128-n8:16:32:64-S128"
target triple = "x86_64-pc-linux-gnu"

%struct.display_data = type { i64, i32, ptr, i8, i32, ptr, ptr, ptr, ptr, ptr, ptr, ptr, ptr }
%struct._GdkEventButton = type { i32, ptr, i8, i32, double, double, ptr, i32, i32, ptr, double, double }
%struct.signal_params_t = type { ptr, ptr }

@global_row_count = external global i32, align 4

; Function Attrs: nounwind uwtable
define dso_local i32 @right_button_pressed(ptr noundef %0, ptr noundef %1, ptr noundef %2, ptr noundef %3, i32 noundef %4) #0 {
  %6 = alloca ptr, align 8
  %7 = alloca ptr, align 8
  %8 = alloca ptr, align 8
  %9 = alloca ptr, align 8
  %10 = alloca i32, align 4
  %11 = alloca ptr, align 8
  %12 = alloca ptr, align 8
  store ptr %0, ptr %6, align 8
  store ptr %1, ptr %7, align 8
  store ptr %2, ptr %8, align 8
  store ptr %3, ptr %9, align 8
  store i32 %4, ptr %10, align 4
  call void @llvm.lifetime.start.p0(i64 8, ptr %11) #11
  %13 = call ptr @gtk_menu_new()
  %14 = call i64 @gtk_menu_get_type() #12
  %15 = call ptr @g_type_check_instance_cast(ptr noundef %13, i64 noundef %14)
  store ptr %15, ptr %11, align 8
  call void @llvm.lifetime.start.p0(i64 8, ptr %12) #11
  %16 = load ptr, ptr %9, align 8
  %17 = getelementptr inbounds nuw %struct.signal_params_t, ptr %16, i32 0, i32 0
  %18 = load ptr, ptr %17, align 8
  store ptr %18, ptr %12, align 8
  %19 = load i32, ptr %10, align 4
  %20 = icmp eq i32 %19, 2
  br i1 %20, label %21, label %46

21:                                               ; preds = %5
  %22 = load ptr, ptr %8, align 8
  %23 = getelementptr inbounds nuw %struct._GdkEventButton, ptr %22, i32 0, i32 7
  %24 = load i32, ptr %23, align 8
  %25 = and i32 %24, 4
  %26 = icmp ne i32 %25, 0
  br i1 %26, label %33, label %27

27:                                               ; preds = %21
  %28 = load i32, ptr @global_row_count, align 4
  %29 = icmp sgt i32 %28, 0
  br i1 %29, label %33, label %30

30:                                               ; preds = %27
  %31 = load ptr, ptr %6, align 8
  %32 = load ptr, ptr %7, align 8
  call void @gtk_tree_view_set_cursor(ptr noundef %31, ptr noundef %32, ptr noundef null, i32 noundef 0)
  br label %33

33:                                               ; preds = %30, %27, %21
  %34 = load ptr, ptr %6, align 8
  %35 = call i64 @gtk_widget_get_type() #12
  %36 = call ptr @g_type_check_instance_cast(ptr noundef %34, i64 noundef %35)
  call void @gtk_widget_grab_focus(ptr noundef %36)
  %37 = load ptr, ptr %12, align 8
  %38 = getelementptr inbounds nuw %struct.display_data, ptr %37, i32 0, i32 10
  %39 = load ptr, ptr %38, align 8
  %40 = load ptr, ptr %6, align 8
  %41 = load ptr, ptr %9, align 8
  %42 = getelementptr inbounds nuw %struct.signal_params_t, ptr %41, i32 0, i32 1
  %43 = load ptr, ptr %42, align 8
  %44 = load ptr, ptr %43, align 8
  %45 = load ptr, ptr %7, align 8
  call void %39(ptr noundef %40, ptr noundef %44, ptr noundef %45, i32 noundef 1)
  br label %46

46:                                               ; preds = %33, %5
  %47 = load ptr, ptr %12, align 8
  %48 = getelementptr inbounds nuw %struct.display_data, ptr %47, i32 0, i32 10
  %49 = load ptr, ptr %48, align 8
  %50 = load ptr, ptr %6, align 8
  %51 = load ptr, ptr %11, align 8
  %52 = load ptr, ptr %7, align 8
  %53 = load i32, ptr %10, align 4
  call void %49(ptr noundef %50, ptr noundef %51, ptr noundef %52, i32 noundef %53)
  %54 = load ptr, ptr %11, align 8
  %55 = call i64 @gtk_widget_get_type() #12
  %56 = call ptr @g_type_check_instance_cast(ptr noundef %54, i64 noundef %55)
  call void @gtk_widget_show_all(ptr noundef %56)
  %57 = load ptr, ptr %11, align 8
  %58 = load ptr, ptr %8, align 8
  %59 = icmp ne ptr %58, null
  br i1 %59, label %60, label %64

60:                                               ; preds = %46
  %61 = load ptr, ptr %8, align 8
  %62 = getelementptr inbounds nuw %struct._GdkEventButton, ptr %61, i32 0, i32 8
  %63 = load i32, ptr %62, align 4
  br label %65

64:                                               ; preds = %46
  br label %65

65:                                               ; preds = %64, %60
  %66 = phi i32 [ %63, %60 ], [ 0, %64 ]
  %67 = load ptr, ptr %8, align 8
  %68 = call i32 @gdk_event_get_time(ptr noundef %67)
  call void @gtk_menu_popup(ptr noundef %57, ptr noundef null, ptr noundef null, ptr noundef null, ptr noundef null, i32 noundef %66, i32 noundef %68)
  call void @llvm.lifetime.end.p0(i64 8, ptr %12) #11
  call void @llvm.lifetime.end.p0(i64 8, ptr %11) #11
  ret i32 1
}