; Function Attrs: nounwind uwtable
define dso_local noundef i32 @right_button_pressed(ptr noundef %0, ptr noundef %1, ptr noundef %2, ptr noundef readonly captures(none) %3, i32 noundef %4) local_unnamed_addr #2 {
  %6 = tail call ptr @gtk_menu_new() #16
  %7 = tail call i64 @gtk_menu_get_type() #17
  %8 = tail call ptr @g_type_check_instance_cast(ptr noundef %6, i64 noundef %7) #16
  %9 = load ptr, ptr %3, align 8
  %10 = icmp eq i32 %4, 2
  br i1 %10, label %11, label %27

11:                                               ; preds = %5
  %12 = getelementptr inbounds nuw i8, ptr %2, i64 48
  %13 = load i32, ptr %12, align 8
  %14 = and i32 %13, 4
  %15 = icmp ne i32 %14, 0
  %16 = load i32, ptr @global_row_count, align 4
  %17 = icmp sgt i32 %16, 0
  %or.cond = select i1 %15, i1 true, i1 %17
  br i1 %or.cond, label %19, label %18

18:                                               ; preds = %11
  tail call void @gtk_tree_view_set_cursor(ptr noundef %0, ptr noundef %1, ptr noundef null, i32 noundef 0) #16
  br label %19

19:                                               ; preds = %18, %11
  %20 = tail call i64 @gtk_widget_get_type() #17
  %21 = tail call ptr @g_type_check_instance_cast(ptr noundef %0, i64 noundef %20) #16
  tail call void @gtk_widget_grab_focus(ptr noundef %21) #16
  %22 = getelementptr inbounds nuw i8, ptr %9, i64 72
  %23 = load ptr, ptr %22, align 8
  %24 = getelementptr inbounds nuw i8, ptr %3, i64 8
  %25 = load ptr, ptr %24, align 8
  %26 = load ptr, ptr %25, align 8
  tail call void %23(ptr noundef %0, ptr noundef %26, ptr noundef %1, i32 noundef 1) #16
  br label %27

27:                                               ; preds = %19, %5
  %28 = getelementptr inbounds nuw i8, ptr %9, i64 72
  %29 = load ptr, ptr %28, align 8
  tail call void %29(ptr noundef %0, ptr noundef %8, ptr noundef %1, i32 noundef %4) #16
  %30 = tail call i64 @gtk_widget_get_type() #17
  %31 = tail call ptr @g_type_check_instance_cast(ptr noundef %8, i64 noundef %30) #16
  tail call void @gtk_widget_show_all(ptr noundef %31) #16
  %.not = icmp eq ptr %2, null
  br i1 %.not, label %35, label %32

32:                                               ; preds = %27
  %33 = getelementptr inbounds nuw i8, ptr %2, i64 52
  %34 = load i32, ptr %33, align 4
  br label %35

35:                                               ; preds = %27, %32
  %36 = phi i32 [ %34, %32 ], [ 0, %27 ]
  %37 = tail call i32 @gdk_event_get_time(ptr noundef %2) #16
  tail call void @gtk_menu_popup(ptr noundef %8, ptr noundef null, ptr noundef null, ptr noundef null, ptr noundef null, i32 noundef %36, i32 noundef %37) #16
  ret i32 1
}